target datalayout = "e-m:e-p270:32:32-p271:32:32-p272:64:64-i64:64-i128:128-f80:128-n8:16:32:64-S128"
target triple = "x86_64-pc-linux-gnu"

; Function Attrs: inlinehint mustprogress nounwind uwtable
define internal noundef zeroext i1 @_ZN6icu_7712_GLOBAL__N_113civilLeapYearEi(i32 noundef %0) #4 {
  %2 = alloca i32, align 4
  store i32 %0, ptr %2, align 4, !tbaa !17
  %3 = load i32, ptr %2, align 4, !tbaa !17
  %4 = mul nsw i32 11, %3
  %5 = add nsw i32 14, %4
  %6 = srem i32 %5, 30
  %7 = icmp slt i32 %6, 11
  ret i1 %7
}

; Function Attrs: inlinehint mustprogress nounwind uwtable
define internal noundef signext i8 @_ZL9U_FAILURE10UErrorCode(i32 noundef %0) #4 {
  %2 = alloca i32, align 4
  store i32 %0, ptr %2, align 4, !tbaa !19
  %3 = load i32, ptr %2, align 4, !tbaa !19
  %4 = icmp sgt i32 %3, 0
  %5 = zext i1 %4 to i8
  ret i8 %5
}

; Function Attrs: mustprogress uwtable
define noundef i32 @_ZNK6icu_7720IslamicCivilCalendar19handleGetYearLengthEiR10UErrorCode(ptr noundef nonnull align 8 dereferenceable(192) %0, i32 noundef %1, ptr noundef nonnull align 4 dereferenceable(4) %2) unnamed_addr #1 align 2 {
  %4 = alloca i32, align 4
  %5 = alloca ptr, align 8
  %6 = alloca i32, align 4
  %7 = alloca ptr, align 8
  store ptr %0, ptr %5, align 8, !tbaa !43
  store i32 %1, ptr %6, align 4, !tbaa !17
  store ptr %2, ptr %7, align 8, !tbaa !12
  %8 = load ptr, ptr %7, align 8, !tbaa !12
  %9 = load i32, ptr %8, align 4, !tbaa !19
  %10 = call noundef signext i8 @_ZL9U_FAILURE10UErrorCode(i32 noundef %9)
  %11 = icmp ne i8 %10, 0
  br i1 %11, label %12, label %13

12:                                               ; preds = %3
  store i32 0, ptr %4, align 4
  br label %18

13:                                               ; preds = %3
  %14 = load i32, ptr %6, align 4, !tbaa !17
  %15 = call noundef zeroext i1 @_ZN6icu_7712_GLOBAL__N_113civilLeapYearEi(i32 noundef %14)
  %16 = select i1 %15, i32 1, i32 0
  %17 = add nsw i32 354, %16
  store i32 %17, ptr %4, align 4
  br label %18

18:                                               ; preds = %13, %12
  %19 = load i32, ptr %4, align 4
  ret i32 %19
}

; Function Attrs: mustprogress uwtable
define noundef i32 @_ZNK6icu_7723IslamicUmalquraCalendar10yearLengthEiR10UErrorCode(ptr noundef nonnull align 8 dereferenceable(192) %0, i32 noundef %1, ptr noundef nonnull align 4 dereferenceable(4) %2) unnamed_addr #1 align 2 {
  %4 = alloca i32, align 4
  %5 = alloca ptr, align 8
  %6 = alloca i32, align 4
  %7 = alloca ptr, align 8
  %8 = alloca i32, align 4
  %9 = alloca i32, align 4
  %10 = alloca i32, align 4
  store ptr %0, ptr %5, align 8, !tbaa !47
  store i32 %1, ptr %6, align 4, !tbaa !17
  store ptr %2, ptr %7, align 8, !tbaa !12
  %11 = load ptr, ptr %5, align 8
  %12 = load i32, ptr %6, align 4, !tbaa !17
  %13 = icmp slt i32 %12, 1300
  br i1 %13, label %17, label %14

14:                                               ; preds = %3
  %15 = load i32, ptr %6, align 4, !tbaa !17
  %16 = icmp sgt i32 %15, 1600
  br i1 %16, label %17, label %21

17:                                               ; preds = %14, %3
  %18 = load i32, ptr %6, align 4, !tbaa !17
  %19 = load ptr, ptr %7, align 8, !tbaa !12
  %20 = call noundef i32 @_ZNK6icu_7720IslamicCivilCalendar19handleGetYearLengthEiR10UErrorCode(ptr noundef nonnull align 8 dereferenceable(192) %11, i32 noundef %18, ptr noundef nonnull align 4 dereferenceable(4) %19)
  store i32 %20, ptr %4, align 4
  br label %50

21:                                               ; preds = %14
  call void @llvm.lifetime.start.p0(i64 4, ptr %8) #8
  store i32 0, ptr %8, align 4, !tbaa !17
  call void @llvm.lifetime.start.p0(i64 4, ptr %9) #8
  store i32 0, ptr %9, align 4, !tbaa !17
  br label %22

22:                                               ; preds = %42, %21
  %23 = load i32, ptr %9, align 4, !tbaa !17
  %24 = icmp slt i32 %23, 12
  br i1 %24, label %26, label %25

25:                                               ; preds = %22
  store i32 2, ptr %10, align 4
  br label %45

26:                                               ; preds = %22
  %27 = load i32, ptr %6, align 4, !tbaa !17
  %28 = load i32, ptr %9, align 4, !tbaa !17
  %29 = load ptr, ptr %7, align 8, !tbaa !12
  %30 = load ptr, ptr %11, align 8, !tbaa !8
  %31 = getelementptr inbounds ptr, ptr %30, i64 40
  %32 = load ptr, ptr %31, align 8
  %33 = call noundef i32 %32(ptr noundef nonnull align 8 dereferenceable(192) %11, i32 noundef %27, i32 noundef %28, ptr noundef nonnull align 4 dereferenceable(4) %29)
  %34 = load i32, ptr %8, align 4, !tbaa !17
  %35 = add nsw i32 %34, %33
  store i32 %35, ptr %8, align 4, !tbaa !17
  %36 = load ptr, ptr %7, align 8, !tbaa !12
  %37 = load i32, ptr %36, align 4, !tbaa !19
  %38 = call noundef signext i8 @_ZL9U_FAILURE10UErrorCode(i32 noundef %37)
  %39 = icmp ne i8 %38, 0
  br i1 %39, label %40, label %41

40:                                               ; preds = %26
  store i32 0, ptr %4, align 4
  store i32 1, ptr %10, align 4
  br label %45

41:                                               ; preds = %26
  br label %42

42:                                               ; preds = %41
  %43 = load i32, ptr %9, align 4, !tbaa !17
  %44 = add nsw i32 %43, 1
  store i32 %44, ptr %9, align 4, !tbaa !17
  br label %22, !llvm.loop !50

45:                                               ; preds = %40, %25
  call void @llvm.lifetime.end.p0(i64 4, ptr %9) #8
  %46 = load i32, ptr %10, align 4
  switch i32 %46, label %49 [
    i32 2, label %47
  ]

47:                                               ; preds = %45
  %48 = load i32, ptr %8, align 4, !tbaa !17
  store i32 %48, ptr %4, align 4
  store i32 1, ptr %10, align 4
  br label %49

49:                                               ; preds = %47, %45
  call void @llvm.lifetime.end.p0(i64 4, ptr %8) #8
  br label %50

50:                                               ; preds = %49, %17
  %51 = load i32, ptr %4, align 4
  ret i32 %51
}