; Function Attrs: mustprogress uwtable
define noundef i32 @_ZNK6icu_7723IslamicUmalquraCalendar10yearLengthEiR10UErrorCode(ptr noundef nonnull align 8 dereferenceable(192) %0, i32 noundef %1, ptr noundef nonnull align 4 dereferenceable(4) %2) unnamed_addr #1 align 2 {
  %4 = add i32 %1, -1601
  %or.cond = icmp ult i32 %4, -301
  br i1 %or.cond, label %5, label %.preheader

5:                                                ; preds = %3
  %6 = load i32, ptr %2, align 4, !tbaa !9
  %7 = icmp slt i32 %6, 1
  br i1 %7, label %8, label %_ZNK6icu_7720IslamicCivilCalendar19handleGetYearLengthEiR10UErrorCode.exit

8:                                                ; preds = %5
  %9 = mul nsw i32 %1, 11
  %10 = add nsw i32 %9, 14
  %11 = srem i32 %10, 30
  %12 = icmp slt i32 %11, 11
  %13 = select i1 %12, i32 355, i32 354
  br label %_ZNK6icu_7720IslamicCivilCalendar19handleGetYearLengthEiR10UErrorCode.exit

.preheader:                                       ; preds = %3, %20
  %.01521 = phi i32 [ %22, %20 ], [ 0, %3 ]
  %.01620 = phi i32 [ %21, %20 ], [ 0, %3 ]
  %14 = load ptr, ptr %0, align 8, !tbaa !3
  %15 = getelementptr inbounds nuw i8, ptr %14, i64 320
  %16 = load ptr, ptr %15, align 8
  %17 = tail call noundef i32 %16(ptr noundef nonnull align 8 dereferenceable(192) %0, i32 noundef %1, i32 noundef %.01521, ptr noundef nonnull align 4 dereferenceable(4) %2)
  %18 = load i32, ptr %2, align 4, !tbaa !9
  %19 = icmp slt i32 %18, 1
  br i1 %19, label %20, label %_ZNK6icu_7720IslamicCivilCalendar19handleGetYearLengthEiR10UErrorCode.exit

20:                                               ; preds = %.preheader
  %21 = add nsw i32 %17, %.01620
  %22 = add nuw nsw i32 %.01521, 1
  %exitcond = icmp eq i32 %22, 12
  br i1 %exitcond, label %_ZNK6icu_7720IslamicCivilCalendar19handleGetYearLengthEiR10UErrorCode.exit, label %.preheader, !llvm.loop !29

_ZNK6icu_7720IslamicCivilCalendar19handleGetYearLengthEiR10UErrorCode.exit: ; preds = %20, %.preheader, %8, %5
  %.017 = phi i32 [ %13, %8 ], [ 0, %5 ], [ 0, %.preheader ], [ %21, %20 ]
  ret i32 %.017
}